target datalayout = "e-m:e-p270:32:32-p271:32:32-p272:64:64-i64:64-i128:128-f80:128-n8:16:32:64-S128"
target triple = "x86_64-pc-linux-gnu"

%struct._wmem_tree_key_t = type { i32, ptr }
%struct._packet_info = type { ptr, ptr, i32, i32, %struct.nstime_t, %struct.nstime_t, %struct.nstime_t, i8, ptr, ptr, ptr, ptr, %struct._address, %struct._address, %struct._address, %struct._address, %struct._address, %struct._address, i32, ptr, i8, [3 x i8], %struct.anon, i32, i32, i32, i32, ptr, i8, ptr, ptr, i16, i16, i32, i32, i16, i32, i32, ptr, ptr, ptr, i8, i8, i16, i16, i16, i32, i16, i16, ptr, ptr, ptr, ptr, ptr, i32, i32 }
%struct.nstime_t = type { i64, i32 }
%struct._address = type { i32, i32, ptr, ptr }
%struct.anon = type { i8, [3 x i8] }
%struct._bluetooth_data_t = type { i32, i32, ptr, ptr, ptr, ptr, ptr, ptr, ptr, ptr, ptr, ptr, ptr, i32, %union.anon }
%union.anon = type { ptr }
%union.request_parameters_union = type { %struct._read_multiple, [8 x i8] }
%struct._read_multiple = type { i32, ptr }
%struct._request_data_t = type { i8, i32, i32, %union.request_parameters_union }

@requests = internal global ptr null, align 8

; Function Attrs: null_pointer_is_valid sspstrong uwtable
define internal void @save_request(ptr noundef %0, i8 noundef zeroext %1, ptr noundef byval(%union.request_parameters_union) align 8 %2, ptr noundef %3) #0 {
  %5 = alloca ptr, align 8
  %6 = alloca i8, align 1
  %7 = alloca ptr, align 8
  %8 = alloca [6 x %struct._wmem_tree_key_t], align 16
  %9 = alloca i32, align 4
  %10 = alloca i32, align 4
  %11 = alloca i32, align 4
  %12 = alloca ptr, align 8
  store ptr %0, ptr %5, align 8
  store i8 %1, ptr %6, align 1
  store ptr %3, ptr %7, align 8
  call void @llvm.lifetime.start.p0(i64 96, ptr %8) #12
  call void @llvm.lifetime.start.p0(i64 4, ptr %9) #12
  call void @llvm.lifetime.start.p0(i64 4, ptr %10) #12
  call void @llvm.lifetime.start.p0(i64 4, ptr %11) #12
  call void @llvm.lifetime.start.p0(i64 8, ptr %12) #12
  %13 = load ptr, ptr %5, align 8
  %14 = getelementptr inbounds nuw %struct._packet_info, ptr %13, i32 0, i32 3
  %15 = load i32, ptr %14, align 4
  store i32 %15, ptr %9, align 4
  %16 = load ptr, ptr %5, align 8
  %17 = getelementptr inbounds nuw %struct._packet_info, ptr %16, i32 0, i32 41
  %18 = load i8, ptr %17, align 8
  %19 = zext i8 %18 to i32
  store i32 %19, ptr %10, align 4
  %20 = load ptr, ptr %5, align 8
  %21 = getelementptr inbounds nuw %struct._packet_info, ptr %20, i32 0, i32 37
  %22 = load i32, ptr %21, align 4
  store i32 %22, ptr %11, align 4
  %23 = getelementptr [6 x %struct._wmem_tree_key_t], ptr %8, i64 0, i64 0
  %24 = getelementptr inbounds nuw %struct._wmem_tree_key_t, ptr %23, i32 0, i32 0
  store i32 1, ptr %24, align 16
  %25 = load ptr, ptr %7, align 8
  %26 = getelementptr inbounds nuw %struct._bluetooth_data_t, ptr %25, i32 0, i32 0
  %27 = getelementptr [6 x %struct._wmem_tree_key_t], ptr %8, i64 0, i64 0
  %28 = getelementptr inbounds nuw %struct._wmem_tree_key_t, ptr %27, i32 0, i32 1
  store ptr %26, ptr %28, align 8
  %29 = getelementptr [6 x %struct._wmem_tree_key_t], ptr %8, i64 0, i64 1
  %30 = getelementptr inbounds nuw %struct._wmem_tree_key_t, ptr %29, i32 0, i32 0
  store i32 1, ptr %30, align 16
  %31 = load ptr, ptr %7, align 8
  %32 = getelementptr inbounds nuw %struct._bluetooth_data_t, ptr %31, i32 0, i32 1
  %33 = getelementptr [6 x %struct._wmem_tree_key_t], ptr %8, i64 0, i64 1
  %34 = getelementptr inbounds nuw %struct._wmem_tree_key_t, ptr %33, i32 0, i32 1
  store ptr %32, ptr %34, align 8
  %35 = getelementptr [6 x %struct._wmem_tree_key_t], ptr %8, i64 0, i64 2
  %36 = getelementptr inbounds nuw %struct._wmem_tree_key_t, ptr %35, i32 0, i32 0
  store i32 1, ptr %36, align 16
  %37 = getelementptr [6 x %struct._wmem_tree_key_t], ptr %8, i64 0, i64 2
  %38 = getelementptr inbounds nuw %struct._wmem_tree_key_t, ptr %37, i32 0, i32 1
  store ptr %10, ptr %38, align 8
  %39 = getelementptr [6 x %struct._wmem_tree_key_t], ptr %8, i64 0, i64 3
  %40 = getelementptr inbounds nuw %struct._wmem_tree_key_t, ptr %39, i32 0, i32 0
  store i32 1, ptr %40, align 16
  %41 = getelementptr [6 x %struct._wmem_tree_key_t], ptr %8, i64 0, i64 3
  %42 = getelementptr inbounds nuw %struct._wmem_tree_key_t, ptr %41, i32 0, i32 1
  store ptr %11, ptr %42, align 8
  %43 = getelementptr [6 x %struct._wmem_tree_key_t], ptr %8, i64 0, i64 4
  %44 = getelementptr inbounds nuw %struct._wmem_tree_key_t, ptr %43, i32 0, i32 0
  store i32 1, ptr %44, align 16
  %45 = getelementptr [6 x %struct._wmem_tree_key_t], ptr %8, i64 0, i64 4
  %46 = getelementptr inbounds nuw %struct._wmem_tree_key_t, ptr %45, i32 0, i32 1
  store ptr %9, ptr %46, align 8
  %47 = getelementptr [6 x %struct._wmem_tree_key_t], ptr %8, i64 0, i64 5
  %48 = getelementptr inbounds nuw %struct._wmem_tree_key_t, ptr %47, i32 0, i32 0
  store i32 0, ptr %48, align 16
  %49 = getelementptr [6 x %struct._wmem_tree_key_t], ptr %8, i64 0, i64 5
  %50 = getelementptr inbounds nuw %struct._wmem_tree_key_t, ptr %49, i32 0, i32 1
  store ptr null, ptr %50, align 8
  %51 = call ptr @wmem_file_scope()
  %52 = call noalias ptr @wmem_alloc0(ptr noundef %51, i64 noundef 40) #15
  store ptr %52, ptr %12, align 8
  %53 = load i8, ptr %6, align 1
  %54 = load ptr, ptr %12, align 8
  %55 = getelementptr inbounds nuw %struct._request_data_t, ptr %54, i32 0, i32 0
  store i8 %53, ptr %55, align 8
  %56 = load i32, ptr %9, align 4
  %57 = load ptr, ptr %12, align 8
  %58 = getelementptr inbounds nuw %struct._request_data_t, ptr %57, i32 0, i32 1
  store i32 %56, ptr %58, align 4
  %59 = load ptr, ptr %12, align 8
  %60 = getelementptr inbounds nuw %struct._request_data_t, ptr %59, i32 0, i32 2
  store i32 0, ptr %60, align 8
  %61 = load ptr, ptr %12, align 8
  %62 = getelementptr inbounds nuw %struct._request_data_t, ptr %61, i32 0, i32 3
  call void @llvm.memcpy.p0.p0.i64(ptr align 8 %62, ptr align 8 %2, i64 24, i1 false)
  %63 = load ptr, ptr @requests, align 8
  %64 = getelementptr inbounds [6 x %struct._wmem_tree_key_t], ptr %8, i64 0, i64 0
  %65 = load ptr, ptr %12, align 8
  call void @wmem_tree_insert32_array(ptr noundef %63, ptr noundef %64, ptr noundef %65)
  call void @llvm.lifetime.end.p0(i64 8, ptr %12) #12
  call void @llvm.lifetime.end.p0(i64 4, ptr %11) #12
  call void @llvm.lifetime.end.p0(i64 4, ptr %10) #12
  call void @llvm.lifetime.end.p0(i64 4, ptr %9) #12
  call void @llvm.lifetime.end.p0(i64 96, ptr %8) #12
  ret void
}