; Function Attrs: null_pointer_is_valid sspstrong uwtable
define internal fastcc void @save_request(ptr noundef readonly captures(none) %0, i8 noundef zeroext %1, ptr noundef readonly byval(%union.request_parameters_union) align 8 captures(none) %2, ptr noundef nonnull %3) unnamed_addr #1 {
  %5 = alloca [6 x %struct._wmem_tree_key_t], align 16
  %6 = alloca i32, align 4
  %7 = alloca i32, align 4
  %8 = alloca i32, align 4
  call void @llvm.lifetime.start.p0(i64 96, ptr nonnull %5) #14
  call void @llvm.lifetime.start.p0(i64 4, ptr nonnull %6) #14
  call void @llvm.lifetime.start.p0(i64 4, ptr nonnull %7) #14
  call void @llvm.lifetime.start.p0(i64 4, ptr nonnull %8) #14
  %9 = getelementptr inbounds nuw i8, ptr %0, i64 20
  %10 = load i32, ptr %9, align 4
  store i32 %10, ptr %6, align 4
  %11 = getelementptr inbounds nuw i8, ptr %0, i64 376
  %12 = load i8, ptr %11, align 8
  %13 = zext i8 %12 to i32
  store i32 %13, ptr %7, align 4
  %14 = getelementptr inbounds nuw i8, ptr %0, i64 348
  %15 = load i32, ptr %14, align 4
  store i32 %15, ptr %8, align 4
  store i32 1, ptr %5, align 16
  %16 = getelementptr inbounds nuw i8, ptr %5, i64 8
  store ptr %3, ptr %16, align 8
  %17 = getelementptr inbounds nuw i8, ptr %5, i64 16
  store i32 1, ptr %17, align 16
  %18 = getelementptr inbounds nuw i8, ptr %3, i64 4
  %19 = getelementptr inbounds nuw i8, ptr %5, i64 24
  store ptr %18, ptr %19, align 8
  %20 = getelementptr inbounds nuw i8, ptr %5, i64 32
  store i32 1, ptr %20, align 16
  %21 = getelementptr inbounds nuw i8, ptr %5, i64 40
  store ptr %7, ptr %21, align 8
  %22 = getelementptr inbounds nuw i8, ptr %5, i64 48
  store i32 1, ptr %22, align 16
  %23 = getelementptr inbounds nuw i8, ptr %5, i64 56
  store ptr %8, ptr %23, align 8
  %24 = getelementptr inbounds nuw i8, ptr %5, i64 64
  store i32 1, ptr %24, align 16
  %25 = getelementptr inbounds nuw i8, ptr %5, i64 72
  store ptr %6, ptr %25, align 8
  %26 = getelementptr inbounds nuw i8, ptr %5, i64 80
  store i32 0, ptr %26, align 16
  %27 = getelementptr inbounds nuw i8, ptr %5, i64 88
  store ptr null, ptr %27, align 8
  %28 = call ptr @wmem_file_scope()
  %29 = call noalias dereferenceable_or_null(40) ptr @wmem_alloc0(ptr noundef %28, i64 noundef 40) #15
  store i8 %1, ptr %29, align 8
  %30 = load i32, ptr %6, align 4
  %31 = getelementptr inbounds nuw i8, ptr %29, i64 4
  store i32 %30, ptr %31, align 4
  %32 = getelementptr inbounds nuw i8, ptr %29, i64 8
  store i32 0, ptr %32, align 8
  %33 = getelementptr inbounds nuw i8, ptr %29, i64 16
  call void @llvm.memcpy.p0.p0.i64(ptr noundef nonnull align 8 dereferenceable(24) %33, ptr noundef align 8 dereferenceable(24) %2, i64 24, i1 false)
  %34 = load ptr, ptr @requests, align 8
  call void @wmem_tree_insert32_array(ptr noundef %34, ptr noundef nonnull %5, ptr noundef %29)
  call void @llvm.lifetime.end.p0(i64 4, ptr nonnull %8) #14
  call void @llvm.lifetime.end.p0(i64 4, ptr nonnull %7) #14
  call void @llvm.lifetime.end.p0(i64 4, ptr nonnull %6) #14
  call void @llvm.lifetime.end.p0(i64 96, ptr nonnull %5) #14
  ret void
}